; Function Attrs: mustprogress nounwind uwtable
define hidden noundef zeroext i1 @_ZN14InitializeNode11is_non_zeroEv(ptr noundef nonnull align 8 dereferenceable(73) %0) local_unnamed_addr #1 align 2 {
  %2 = getelementptr inbounds i8, ptr %0, i64 68
  %3 = load i32, ptr %2, align 4
  %.not = icmp eq i32 %3, 0
  br i1 %.not, label %4, label %8

4:                                                ; preds = %1
  tail call void @_ZN14InitializeNode19remove_extra_zeroesEv(ptr noundef nonnull align 8 dereferenceable(73) %0)
  %5 = getelementptr inbounds i8, ptr %0, i64 24
  %6 = load i32, ptr %5, align 8
  %7 = icmp ugt i32 %6, 6
  br label %8

8:                                                ; preds = %1, %4
  %.0 = phi i1 [ %7, %4 ], [ false, %1 ]
  ret i1 %.0
}